target datalayout = "e-m:e-p270:32:32-p271:32:32-p272:64:64-i64:64-i128:128-f80:128-n8:16:32:64-S128"
target triple = "x86_64-pc-linux-gnu"

%"class.std::basic_string_view" = type { i64, ptr }
%"class.std::filesystem::__cxx11::path" = type { %"class.std::__cxx11::basic_string", %"struct.std::filesystem::__cxx11::path::_List" }
%"class.std::__cxx11::basic_string" = type { %"struct.std::__cxx11::basic_string<char>::_Alloc_hider", i64, %union.anon.0 }
%"struct.std::__cxx11::basic_string<char>::_Alloc_hider" = type { ptr }
%union.anon.0 = type { i64, [8 x i8] }
%"struct.std::filesystem::__cxx11::path::_List" = type { %"class.std::unique_ptr" }
%"class.std::unique_ptr" = type { %"struct.std::__uniq_ptr_data" }
%"struct.std::__uniq_ptr_data" = type { %"class.std::__uniq_ptr_impl" }
%"class.std::__uniq_ptr_impl" = type { %"class.std::tuple" }
%"class.std::tuple" = type { %"struct.std::_Tuple_impl" }
%"struct.std::_Tuple_impl" = type { %"struct.std::_Head_base.2" }
%"struct.std::_Head_base.2" = type { ptr }

@_ZN8WasmEdgeL10kCacheRootE = internal constant %"class.std::basic_string_view" { i64 29, ptr @.str.1 }, align 8
@.str = private unnamed_addr constant [6 x i8] c"cache\00", align 1

; Function Attrs: mustprogress uwtable
define linkonce_odr hidden void @_ZNSt10filesystem7__cxx114pathC2ERKS1_(ptr noundef nonnull align 8 dereferenceable(40) %0, ptr noundef nonnull align 8 dereferenceable(40) %1) unnamed_addr #0 comdat align 2 personality ptr @__gxx_personality_v0 {
  %3 = alloca ptr, align 8
  %4 = alloca ptr, align 8
  %5 = alloca ptr, align 8
  %6 = alloca i32, align 4
  store ptr %0, ptr %3, align 8
  store ptr %1, ptr %4, align 8
  %7 = load ptr, ptr %3, align 8
  %8 = getelementptr inbounds %"class.std::filesystem::__cxx11::path", ptr %7, i32 0, i32 0
  %9 = load ptr, ptr %4, align 8
  %10 = getelementptr inbounds %"class.std::filesystem::__cxx11::path", ptr %9, i32 0, i32 0
  call void @_ZNSt7__cxx1112basic_stringIcSt11char_traitsIcESaIcEEC1ERKS4_(ptr noundef nonnull align 8 dereferenceable(32) %8, ptr noundef nonnull align 8 dereferenceable(32) %10)
  %11 = getelementptr inbounds %"class.std::filesystem::__cxx11::path", ptr %7, i32 0, i32 1
  %12 = load ptr, ptr %4, align 8
  %13 = getelementptr inbounds %"class.std::filesystem::__cxx11::path", ptr %12, i32 0, i32 1
  invoke void @_ZNSt10filesystem7__cxx114path5_ListC1ERKS2_(ptr noundef nonnull align 8 dereferenceable(8) %11, ptr noundef nonnull align 8 dereferenceable(8) %13)
          to label %14 unwind label %15

14:                                               ; preds = %2
  ret void

15:                                               ; preds = %2
  %16 = landingpad { ptr, i32 }
          cleanup
  %17 = extractvalue { ptr, i32 } %16, 0
  store ptr %17, ptr %5, align 8
  %18 = extractvalue { ptr, i32 } %16, 1
  store i32 %18, ptr %6, align 4
  call void @_ZNSt7__cxx1112basic_stringIcSt11char_traitsIcESaIcEED1Ev(ptr noundef nonnull align 8 dereferenceable(32) %8) #8
  br label %19

19:                                               ; preds = %15
  %20 = load ptr, ptr %5, align 8
  %21 = load i32, ptr %6, align 4
  %22 = insertvalue { ptr, i32 } poison, ptr %20, 0
  %23 = insertvalue { ptr, i32 } %22, i32 %21, 1
  resume { ptr, i32 } %23
}

; Function Attrs: mustprogress nounwind uwtable
define linkonce_odr hidden void @_ZNSt17basic_string_viewIcSt11char_traitsIcEEC2EPKcm(ptr noundef nonnull align 8 dereferenceable(16) %0, ptr noundef %1, i64 noundef %2) unnamed_addr #1 comdat align 2 {
  %4 = alloca ptr, align 8
  %5 = alloca ptr, align 8
  %6 = alloca i64, align 8
  store ptr %0, ptr %4, align 8
  store ptr %1, ptr %5, align 8
  store i64 %2, ptr %6, align 8
  %7 = load ptr, ptr %4, align 8
  %8 = getelementptr inbounds %"class.std::basic_string_view", ptr %7, i32 0, i32 0
  %9 = load i64, ptr %6, align 8
  store i64 %9, ptr %8, align 8
  %10 = getelementptr inbounds %"class.std::basic_string_view", ptr %7, i32 0, i32 1
  %11 = load ptr, ptr %5, align 8
  store ptr %11, ptr %10, align 8
  ret void
}

; Function Attrs: mustprogress nounwind uwtable
define linkonce_odr hidden void @_ZNSt10filesystem7__cxx114pathC2Ev(ptr noundef nonnull align 8 dereferenceable(40) %0) unnamed_addr #1 comdat align 2 personality ptr @__gxx_personality_v0 {
  %2 = alloca ptr, align 8
  store ptr %0, ptr %2, align 8
  %3 = load ptr, ptr %2, align 8
  %4 = getelementptr inbounds %"class.std::filesystem::__cxx11::path", ptr %3, i32 0, i32 0
  call void @_ZNSt7__cxx1112basic_stringIcSt11char_traitsIcESaIcEEC1Ev(ptr noundef nonnull align 8 dereferenceable(32) %4) #8
  %5 = getelementptr inbounds %"class.std::filesystem::__cxx11::path", ptr %3, i32 0, i32 1
  invoke void @_ZNSt10filesystem7__cxx114path5_ListC1Ev(ptr noundef nonnull align 8 dereferenceable(8) %5)
          to label %6 unwind label %7

6:                                                ; preds = %1
  ret void

7:                                                ; preds = %1
  %8 = landingpad { ptr, i32 }
          catch ptr null
  %9 = extractvalue { ptr, i32 } %8, 0
  call void @__clang_call_terminate(ptr %9) #10
  unreachable
}

; Function Attrs: mustprogress uwtable
define linkonce_odr void @_ZNSt10filesystem7__cxx11dvERKNS0_4pathES3_(ptr dead_on_unwind noalias writable sret(%"class.std::filesystem::__cxx11::path") align 8 %0, ptr noundef nonnull align 8 dereferenceable(40) %1, ptr noundef nonnull align 8 dereferenceable(40) %2) #0 comdat personality ptr @__gxx_personality_v0 {
  %4 = alloca ptr, align 8
  %5 = alloca ptr, align 8
  %6 = alloca ptr, align 8
  %7 = alloca i1, align 1
  %8 = alloca ptr, align 8
  %9 = alloca i32, align 4
  store ptr %0, ptr %4, align 8
  store ptr %1, ptr %5, align 8
  store ptr %2, ptr %6, align 8
  store i1 false, ptr %7, align 1
  %10 = load ptr, ptr %5, align 8
  call void @_ZNSt10filesystem7__cxx114pathC2ERKS1_(ptr noundef nonnull align 8 dereferenceable(40) %0, ptr noundef nonnull align 8 dereferenceable(40) %10)
  %11 = load ptr, ptr %6, align 8
  %12 = invoke noundef nonnull align 8 dereferenceable(40) ptr @_ZNSt10filesystem7__cxx114pathdVERKS1_(ptr noundef nonnull align 8 dereferenceable(40) %0, ptr noundef nonnull align 8 dereferenceable(40) %11)
          to label %13 unwind label %15

13:                                               ; preds = %3
  store i1 true, ptr %7, align 1
  %14 = load i1, ptr %7, align 1
  br i1 %14, label %20, label %19

15:                                               ; preds = %3
  %16 = landingpad { ptr, i32 }
          cleanup
  %17 = extractvalue { ptr, i32 } %16, 0
  store ptr %17, ptr %8, align 8
  %18 = extractvalue { ptr, i32 } %16, 1
  store i32 %18, ptr %9, align 4
  call void @_ZNSt10filesystem7__cxx114pathD2Ev(ptr noundef nonnull align 8 dereferenceable(40) %0) #8
  br label %21

19:                                               ; preds = %13
  call void @_ZNSt10filesystem7__cxx114pathD2Ev(ptr noundef nonnull align 8 dereferenceable(40) %0) #8
  br label %20

20:                                               ; preds = %19, %13
  ret void

21:                                               ; preds = %15
  %22 = load ptr, ptr %8, align 8
  %23 = load i32, ptr %9, align 4
  %24 = insertvalue { ptr, i32 } poison, ptr %22, 0
  %25 = insertvalue { ptr, i32 } %24, i32 %23, 1
  resume { ptr, i32 } %25
}

; Function Attrs: mustprogress nounwind uwtable
define linkonce_odr { i64, ptr } @_ZNSt8literals20string_view_literalsli2svEPKcm(ptr noundef %0, i64 noundef %1) #1 comdat {
  %3 = alloca %"class.std::basic_string_view", align 8
  %4 = alloca ptr, align 8
  %5 = alloca i64, align 8
  store ptr %0, ptr %4, align 8
  store i64 %1, ptr %5, align 8
  %6 = load ptr, ptr %4, align 8
  %7 = load i64, ptr %5, align 8
  call void @_ZNSt17basic_string_viewIcSt11char_traitsIcEEC2EPKcm(ptr noundef nonnull align 8 dereferenceable(16) %3, ptr noundef %6, i64 noundef %7) #8
  %8 = load { i64, ptr }, ptr %3, align 8
  ret { i64, ptr } %8
}

; Function Attrs: mustprogress nounwind uwtable
define linkonce_odr hidden noundef zeroext i1 @_ZNKSt10filesystem7__cxx114path5emptyEv(ptr noundef nonnull align 8 dereferenceable(40) %0) #1 comdat align 2 {
  %2 = alloca ptr, align 8
  store ptr %0, ptr %2, align 8
  %3 = load ptr, ptr %2, align 8
  %4 = getelementptr inbounds %"class.std::filesystem::__cxx11::path", ptr %3, i32 0, i32 0
  %5 = call noundef zeroext i1 @_ZNKSt7__cxx1112basic_stringIcSt11char_traitsIcESaIcEE5emptyEv(ptr noundef nonnull align 8 dereferenceable(32) %4) #8
  ret i1 %5
}

; Function Attrs: mustprogress uwtable
define linkonce_odr void @_ZNSt10filesystem7__cxx116u8pathISt17basic_string_viewIcSt11char_traitsIcEENS0_4pathEcEES6_RKT_(ptr dead_on_unwind noalias writable sret(%"class.std::filesystem::__cxx11::path") align 8 %0, ptr noundef nonnull align 8 dereferenceable(16) %1) #0 comdat {
  %3 = alloca ptr, align 8
  %4 = alloca ptr, align 8
  store ptr %0, ptr %3, align 8
  store ptr %1, ptr %4, align 8
  %5 = load ptr, ptr %4, align 8
  call void @_ZNSt10filesystem7__cxx114pathC2ISt17basic_string_viewIcSt11char_traitsIcEES1_EERKT_NS1_6formatE(ptr noundef nonnull align 8 dereferenceable(40) %0, ptr noundef nonnull align 8 dereferenceable(16) %5, i8 noundef zeroext 2)
  ret void
}

; Function Attrs: mustprogress uwtable
define internal void @_ZN8WasmEdge3AOT12_GLOBAL__N_17getRootB5cxx11ENS0_5Cache12StorageScopeE(ptr dead_on_unwind noalias writable sret(%"class.std::filesystem::__cxx11::path") align 8 %0, i32 noundef %1) #0 personality ptr @__gxx_personality_v0 {
  %3 = alloca ptr, align 8
  %4 = alloca i32, align 4
  %5 = alloca %"class.std::filesystem::__cxx11::path", align 8
  %6 = alloca %"class.std::filesystem::__cxx11::path", align 8
  %7 = alloca %"class.std::basic_string_view", align 8
  %8 = alloca ptr, align 8
  %9 = alloca i32, align 4
  %10 = alloca i32, align 4
  store ptr %0, ptr %3, align 8
  store i32 %1, ptr %4, align 4
  %11 = load i32, ptr %4, align 4
  switch i32 %11, label %36 [
    i32 0, label %12
    i32 1, label %13
  ]

12:                                               ; preds = %2
  call void @_ZNSt10filesystem7__cxx116u8pathISt17basic_string_viewIcSt11char_traitsIcEENS0_4pathEcEES6_RKT_(ptr dead_on_unwind writable sret(%"class.std::filesystem::__cxx11::path") align 8 %0, ptr noundef nonnull align 8 dereferenceable(16) @_ZN8WasmEdgeL10kCacheRootE)
  br label %37

13:                                               ; preds = %2
  call void @_ZN8WasmEdge4Path4homeB5cxx11Ev(ptr dead_on_unwind writable sret(%"class.std::filesystem::__cxx11::path") align 8 %5) #8
  %14 = call noundef zeroext i1 @_ZNKSt10filesystem7__cxx114path5emptyEv(ptr noundef nonnull align 8 dereferenceable(40) %5) #8
  br i1 %14, label %31, label %15

15:                                               ; preds = %13
  %16 = call { i64, ptr } @_ZNSt8literals20string_view_literalsli2svEPKcm(ptr noundef @.str, i64 noundef 5) #8
  %17 = getelementptr inbounds { i64, ptr }, ptr %7, i32 0, i32 0
  %18 = extractvalue { i64, ptr } %16, 0
  store i64 %18, ptr %17, align 8
  %19 = getelementptr inbounds { i64, ptr }, ptr %7, i32 0, i32 1
  %20 = extractvalue { i64, ptr } %16, 1
  store ptr %20, ptr %19, align 8
  invoke void @_ZNSt10filesystem7__cxx114pathC2ISt17basic_string_viewIcSt11char_traitsIcEES1_EERKT_NS1_6formatE(ptr noundef nonnull align 8 dereferenceable(40) %6, ptr noundef nonnull align 8 dereferenceable(16) %7, i8 noundef zeroext 2)
          to label %21 unwind label %23

21:                                               ; preds = %15
  invoke void @_ZNSt10filesystem7__cxx11dvERKNS0_4pathES3_(ptr dead_on_unwind writable sret(%"class.std::filesystem::__cxx11::path") align 8 %0, ptr noundef nonnull align 8 dereferenceable(40) %5, ptr noundef nonnull align 8 dereferenceable(40) %6)
          to label %22 unwind label %27

22:                                               ; preds = %21
  call void @_ZNSt10filesystem7__cxx114pathD2Ev(ptr noundef nonnull align 8 dereferenceable(40) %6) #8
  store i32 1, ptr %10, align 4
  br label %32

23:                                               ; preds = %15
  %24 = landingpad { ptr, i32 }
          cleanup
  %25 = extractvalue { ptr, i32 } %24, 0
  store ptr %25, ptr %8, align 8
  %26 = extractvalue { ptr, i32 } %24, 1
  store i32 %26, ptr %9, align 4
  br label %35

27:                                               ; preds = %21
  %28 = landingpad { ptr, i32 }
          cleanup
  %29 = extractvalue { ptr, i32 } %28, 0
  store ptr %29, ptr %8, align 8
  %30 = extractvalue { ptr, i32 } %28, 1
  store i32 %30, ptr %9, align 4
  call void @_ZNSt10filesystem7__cxx114pathD2Ev(ptr noundef nonnull align 8 dereferenceable(40) %6) #8
  br label %35

31:                                               ; preds = %13
  store i32 0, ptr %10, align 4
  br label %32

32:                                               ; preds = %31, %22
  call void @_ZNSt10filesystem7__cxx114pathD2Ev(ptr noundef nonnull align 8 dereferenceable(40) %5) #8
  %33 = load i32, ptr %10, align 4
  switch i32 %33, label %43 [
    i32 0, label %34
    i32 1, label %37
  ]

34:                                               ; preds = %32
  call void @_ZNSt10filesystem7__cxx114pathC2Ev(ptr noundef nonnull align 8 dereferenceable(40) %0) #8
  br label %37

35:                                               ; preds = %27, %23
  call void @_ZNSt10filesystem7__cxx114pathD2Ev(ptr noundef nonnull align 8 dereferenceable(40) %5) #8
  br label %38

36:                                               ; preds = %2
  unreachable

37:                                               ; preds = %34, %32, %12
  ret void

38:                                               ; preds = %35
  %39 = load ptr, ptr %8, align 8
  %40 = load i32, ptr %9, align 4
  %41 = insertvalue { ptr, i32 } poison, ptr %39, 0
  %42 = insertvalue { ptr, i32 } %41, i32 %40, 1
  resume { ptr, i32 } %42

43:                                               ; preds = %32
  unreachable
}