; Function Attrs: mustprogress uwtable
define internal fastcc void @_ZN8WasmEdge3AOT12_GLOBAL__N_17getRootB5cxx11ENS0_5Cache12StorageScopeE(ptr dead_on_unwind noalias nonnull writable align 8 %0, i32 noundef %1) unnamed_addr #0 personality ptr @__gxx_personality_v0 {
  %3 = alloca %"class.std::filesystem::__cxx11::path", align 8
  %4 = alloca %"class.std::filesystem::__cxx11::path", align 8
  %5 = alloca %"class.std::basic_string_view", align 8
  %switch = icmp eq i32 %1, 0
  br i1 %switch, label %6, label %7

6:                                                ; preds = %2
  tail call void @_ZNSt10filesystem7__cxx114pathC2ISt17basic_string_viewIcSt11char_traitsIcEES1_EERKT_NS1_6formatE(ptr noundef nonnull align 8 dereferenceable(40) %0, ptr noundef nonnull align 8 dereferenceable(16) @_ZN8WasmEdgeL10kCacheRootE, i8 noundef zeroext 2)
  br label %_ZNSt10filesystem7__cxx114pathC2Ev.exit

7:                                                ; preds = %2
  call void @_ZN8WasmEdge4Path4homeB5cxx11Ev(ptr dead_on_unwind nonnull writable sret(%"class.std::filesystem::__cxx11::path") align 8 %3) #8
  %8 = call noundef zeroext i1 @_ZNKSt7__cxx1112basic_stringIcSt11char_traitsIcESaIcEE5emptyEv(ptr noundef nonnull align 8 dereferenceable(40) %3) #8
  br i1 %8, label %26, label %9

9:                                                ; preds = %7
  store i64 5, ptr %5, align 8
  %10 = getelementptr inbounds nuw i8, ptr %5, i64 8
  store ptr @.str, ptr %10, align 8
  invoke void @_ZNSt10filesystem7__cxx114pathC2ISt17basic_string_viewIcSt11char_traitsIcEES1_EERKT_NS1_6formatE(ptr noundef nonnull align 8 dereferenceable(40) %4, ptr noundef nonnull align 8 dereferenceable(16) %5, i8 noundef zeroext 2)
          to label %11 unwind label %22

11:                                               ; preds = %9
  invoke void @_ZNSt7__cxx1112basic_stringIcSt11char_traitsIcESaIcEEC1ERKS4_(ptr noundef nonnull align 8 dereferenceable(40) %0, ptr noundef nonnull align 8 dereferenceable(40) %3)
          to label %.noexc unwind label %24

.noexc:                                           ; preds = %11
  %12 = getelementptr inbounds nuw i8, ptr %0, i64 32
  %13 = getelementptr inbounds nuw i8, ptr %3, i64 32
  invoke void @_ZNSt10filesystem7__cxx114path5_ListC1ERKS2_(ptr noundef nonnull align 8 dereferenceable(8) %12, ptr noundef nonnull align 8 dereferenceable(8) %13)
          to label %_ZNSt10filesystem7__cxx114pathC2ERKS1_.exit.i unwind label %14

14:                                               ; preds = %.noexc
  %15 = landingpad { ptr, i32 }
          cleanup
  call void @_ZNSt7__cxx1112basic_stringIcSt11char_traitsIcESaIcEED1Ev(ptr noundef nonnull align 8 dereferenceable(40) %0) #8
  br label %.body

_ZNSt10filesystem7__cxx114pathC2ERKS1_.exit.i:    ; preds = %.noexc
  %16 = invoke noundef nonnull align 8 dereferenceable(40) ptr @_ZNSt10filesystem7__cxx114pathdVERKS1_(ptr noundef nonnull align 8 dereferenceable(40) %0, ptr noundef nonnull align 8 dereferenceable(40) %4)
          to label %_ZNSt10filesystem7__cxx11dvERKNS0_4pathES3_.exit unwind label %17

17:                                               ; preds = %_ZNSt10filesystem7__cxx114pathC2ERKS1_.exit.i
  %18 = landingpad { ptr, i32 }
          cleanup
  call void @_ZNSt10filesystem7__cxx114pathD2Ev(ptr noundef nonnull align 8 dereferenceable(40) %0) #8
  br label %.body

_ZNSt10filesystem7__cxx11dvERKNS0_4pathES3_.exit: ; preds = %_ZNSt10filesystem7__cxx114pathC2ERKS1_.exit.i
  %19 = getelementptr inbounds nuw i8, ptr %4, i64 32
  %20 = load ptr, ptr %19, align 8
  %.not.i.i.i = icmp eq ptr %20, null
  br i1 %.not.i.i.i, label %_ZNSt10filesystem7__cxx114pathD2Ev.exit, label %21

21:                                               ; preds = %_ZNSt10filesystem7__cxx11dvERKNS0_4pathES3_.exit
  call void @_ZNKSt10filesystem7__cxx114path5_List13_Impl_deleterclEPNS2_5_ImplE(ptr noundef nonnull align 8 dereferenceable(8) %19, ptr noundef nonnull %20) #8
  br label %_ZNSt10filesystem7__cxx114pathD2Ev.exit

_ZNSt10filesystem7__cxx114pathD2Ev.exit:          ; preds = %_ZNSt10filesystem7__cxx11dvERKNS0_4pathES3_.exit, %21
  store ptr null, ptr %19, align 8
  call void @_ZNSt7__cxx1112basic_stringIcSt11char_traitsIcESaIcEED1Ev(ptr noundef nonnull align 8 dereferenceable(40) %4) #8
  br label %26

22:                                               ; preds = %9
  %23 = landingpad { ptr, i32 }
          cleanup
  br label %35

24:                                               ; preds = %11
  %25 = landingpad { ptr, i32 }
          cleanup
  br label %.body

.body:                                            ; preds = %14, %17, %24
  %eh.lpad-body = phi { ptr, i32 } [ %25, %24 ], [ %15, %14 ], [ %18, %17 ]
  call void @_ZNSt10filesystem7__cxx114pathD2Ev(ptr noundef nonnull align 8 dereferenceable(40) %4) #8
  br label %35

26:                                               ; preds = %7, %_ZNSt10filesystem7__cxx114pathD2Ev.exit
  %27 = getelementptr inbounds nuw i8, ptr %3, i64 32
  %28 = load ptr, ptr %27, align 8
  %.not.i.i.i8 = icmp eq ptr %28, null
  br i1 %.not.i.i.i8, label %_ZNSt10filesystem7__cxx114pathD2Ev.exit9, label %29

29:                                               ; preds = %26
  call void @_ZNKSt10filesystem7__cxx114path5_List13_Impl_deleterclEPNS2_5_ImplE(ptr noundef nonnull align 8 dereferenceable(8) %27, ptr noundef nonnull %28) #8
  br label %_ZNSt10filesystem7__cxx114pathD2Ev.exit9

_ZNSt10filesystem7__cxx114pathD2Ev.exit9:         ; preds = %26, %29
  store ptr null, ptr %27, align 8
  call void @_ZNSt7__cxx1112basic_stringIcSt11char_traitsIcESaIcEED1Ev(ptr noundef nonnull align 8 dereferenceable(40) %3) #8
  br i1 %8, label %30, label %_ZNSt10filesystem7__cxx114pathC2Ev.exit

30:                                               ; preds = %_ZNSt10filesystem7__cxx114pathD2Ev.exit9
  call void @_ZNSt7__cxx1112basic_stringIcSt11char_traitsIcESaIcEEC1Ev(ptr noundef nonnull align 8 dereferenceable(40) %0) #8
  %31 = getelementptr inbounds nuw i8, ptr %0, i64 32
  invoke void @_ZNSt10filesystem7__cxx114path5_ListC1Ev(ptr noundef nonnull align 8 dereferenceable(8) %31)
          to label %_ZNSt10filesystem7__cxx114pathC2Ev.exit unwind label %32

32:                                               ; preds = %30
  %33 = landingpad { ptr, i32 }
          catch ptr null
  %34 = extractvalue { ptr, i32 } %33, 0
  call void @__clang_call_terminate(ptr %34) #9
  unreachable

35:                                               ; preds = %.body, %22
  %.pn = phi { ptr, i32 } [ %eh.lpad-body, %.body ], [ %23, %22 ]
  call void @_ZNSt10filesystem7__cxx114pathD2Ev(ptr noundef nonnull align 8 dereferenceable(40) %3) #8
  resume { ptr, i32 } %.pn

_ZNSt10filesystem7__cxx114pathC2Ev.exit:          ; preds = %30, %_ZNSt10filesystem7__cxx114pathD2Ev.exit9, %6
  ret void
}